target datalayout = "e-m:e-p270:32:32-p271:32:32-p272:64:64-i64:64-i128:128-f80:128-n8:16:32:64-S128"
target triple = "x86_64-pc-linux-gnu"

%struct.AVFilterContext = type { ptr, ptr, ptr, ptr, ptr, i32, ptr, ptr, i32, ptr, ptr, i32, i32, ptr, ptr, ptr, ptr, i32, ptr, i32, i32 }
%struct.IdentityContext = type { ptr, %struct.FFFrameSync, double, double, double, [4 x double], i64, i32, i32, [4 x i8], [4 x i32], [4 x i8], i32, i32, [4 x i32], [4 x i32], ptr, ptr, ptr, ptr }
%struct.FFFrameSync = type { ptr, ptr, i32, %struct.AVRational, i64, ptr, ptr, i32, i32, i8, i8, ptr, i32, i32, i32, i32 }
%struct.AVRational = type { i32, i32 }
%struct.ThreadData = type { [4 x ptr], [4 x ptr], [4 x i32], [4 x i32], [4 x i32], [4 x i32], ptr, i32 }

; Function Attrs: nounwind uwtable
define internal i32 @compute_images_identity(ptr noundef %0, ptr noundef %1, i32 noundef %2, i32 noundef %3) #0 {
  %5 = alloca ptr, align 8
  %6 = alloca ptr, align 8
  %7 = alloca i32, align 4
  %8 = alloca i32, align 4
  %9 = alloca ptr, align 8
  %10 = alloca ptr, align 8
  %11 = alloca ptr, align 8
  %12 = alloca i32, align 4
  %13 = alloca i32, align 4
  %14 = alloca i32, align 4
  %15 = alloca i32, align 4
  %16 = alloca i32, align 4
  %17 = alloca i32, align 4
  %18 = alloca i32, align 4
  %19 = alloca i32, align 4
  %20 = alloca ptr, align 8
  %21 = alloca ptr, align 8
  %22 = alloca i64, align 8
  %23 = alloca i32, align 4
  store ptr %0, ptr %5, align 8, !tbaa !4
  store ptr %1, ptr %6, align 8, !tbaa !77
  store i32 %2, ptr %7, align 4, !tbaa !34
  store i32 %3, ptr %8, align 4, !tbaa !34
  call void @llvm.lifetime.start.p0(i64 8, ptr %9) #10
  %24 = load ptr, ptr %5, align 8, !tbaa !4
  %25 = getelementptr inbounds nuw %struct.AVFilterContext, ptr %24, i32 0, i32 9
  %26 = load ptr, ptr %25, align 8, !tbaa !9
  store ptr %26, ptr %9, align 8, !tbaa !22
  call void @llvm.lifetime.start.p0(i64 8, ptr %10) #10
  %27 = load ptr, ptr %6, align 8, !tbaa !77
  store ptr %27, ptr %10, align 8, !tbaa !78
  call void @llvm.lifetime.start.p0(i64 8, ptr %11) #10
  %28 = load ptr, ptr %10, align 8, !tbaa !78
  %29 = getelementptr inbounds nuw %struct.ThreadData, ptr %28, i32 0, i32 6
  %30 = load ptr, ptr %29, align 8, !tbaa !80
  %31 = load i32, ptr %7, align 4, !tbaa !34
  %32 = sext i32 %31 to i64
  %33 = getelementptr inbounds ptr, ptr %30, i64 %32
  %34 = load ptr, ptr %33, align 8, !tbaa !68
  store ptr %34, ptr %11, align 8, !tbaa !68
  call void @llvm.lifetime.start.p0(i64 4, ptr %12) #10
  store i32 0, ptr %12, align 4, !tbaa !34
  br label %35

35:                                               ; preds = %134, %4
  %36 = load i32, ptr %12, align 4, !tbaa !34
  %37 = load ptr, ptr %10, align 8, !tbaa !78
  %38 = getelementptr inbounds nuw %struct.ThreadData, ptr %37, i32 0, i32 7
  %39 = load i32, ptr %38, align 8, !tbaa !82
  %40 = icmp slt i32 %36, %39
  br i1 %40, label %42, label %41

41:                                               ; preds = %35
  store i32 2, ptr %13, align 4
  call void @llvm.lifetime.end.p0(i64 4, ptr %12) #10
  br label %137

42:                                               ; preds = %35
  call void @llvm.lifetime.start.p0(i64 4, ptr %14) #10
  %43 = load ptr, ptr %10, align 8, !tbaa !78
  %44 = getelementptr inbounds nuw %struct.ThreadData, ptr %43, i32 0, i32 4
  %45 = load i32, ptr %12, align 4, !tbaa !34
  %46 = sext i32 %45 to i64
  %47 = getelementptr inbounds [4 x i32], ptr %44, i64 0, i64 %46
  %48 = load i32, ptr %47, align 4, !tbaa !34
  store i32 %48, ptr %14, align 4, !tbaa !34
  call void @llvm.lifetime.start.p0(i64 4, ptr %15) #10
  %49 = load ptr, ptr %10, align 8, !tbaa !78
  %50 = getelementptr inbounds nuw %struct.ThreadData, ptr %49, i32 0, i32 5
  %51 = load i32, ptr %12, align 4, !tbaa !34
  %52 = sext i32 %51 to i64
  %53 = getelementptr inbounds [4 x i32], ptr %50, i64 0, i64 %52
  %54 = load i32, ptr %53, align 4, !tbaa !34
  store i32 %54, ptr %15, align 4, !tbaa !34
  call void @llvm.lifetime.start.p0(i64 4, ptr %16) #10
  %55 = load i32, ptr %15, align 4, !tbaa !34
  %56 = load i32, ptr %7, align 4, !tbaa !34
  %57 = mul nsw i32 %55, %56
  %58 = load i32, ptr %8, align 4, !tbaa !34
  %59 = sdiv i32 %57, %58
  store i32 %59, ptr %16, align 4, !tbaa !34
  call void @llvm.lifetime.start.p0(i64 4, ptr %17) #10
  %60 = load i32, ptr %15, align 4, !tbaa !34
  %61 = load i32, ptr %7, align 4, !tbaa !34
  %62 = add nsw i32 %61, 1
  %63 = mul nsw i32 %60, %62
  %64 = load i32, ptr %8, align 4, !tbaa !34
  %65 = sdiv i32 %63, %64
  store i32 %65, ptr %17, align 4, !tbaa !34
  call void @llvm.lifetime.start.p0(i64 4, ptr %18) #10
  %66 = load ptr, ptr %10, align 8, !tbaa !78
  %67 = getelementptr inbounds nuw %struct.ThreadData, ptr %66, i32 0, i32 3
  %68 = load i32, ptr %12, align 4, !tbaa !34
  %69 = sext i32 %68 to i64
  %70 = getelementptr inbounds [4 x i32], ptr %67, i64 0, i64 %69
  %71 = load i32, ptr %70, align 4, !tbaa !34
  store i32 %71, ptr %18, align 4, !tbaa !34
  call void @llvm.lifetime.start.p0(i64 4, ptr %19) #10
  %72 = load ptr, ptr %10, align 8, !tbaa !78
  %73 = getelementptr inbounds nuw %struct.ThreadData, ptr %72, i32 0, i32 2
  %74 = load i32, ptr %12, align 4, !tbaa !34
  %75 = sext i32 %74 to i64
  %76 = getelementptr inbounds [4 x i32], ptr %73, i64 0, i64 %75
  %77 = load i32, ptr %76, align 4, !tbaa !34
  store i32 %77, ptr %19, align 4, !tbaa !34
  call void @llvm.lifetime.start.p0(i64 8, ptr %20) #10
  %78 = load ptr, ptr %10, align 8, !tbaa !78
  %79 = getelementptr inbounds nuw %struct.ThreadData, ptr %78, i32 0, i32 0
  %80 = load i32, ptr %12, align 4, !tbaa !34
  %81 = sext i32 %80 to i64
  %82 = getelementptr inbounds [4 x ptr], ptr %79, i64 0, i64 %81
  %83 = load ptr, ptr %82, align 8, !tbaa !83
  %84 = load i32, ptr %19, align 4, !tbaa !34
  %85 = load i32, ptr %16, align 4, !tbaa !34
  %86 = mul nsw i32 %84, %85
  %87 = sext i32 %86 to i64
  %88 = getelementptr inbounds i8, ptr %83, i64 %87
  store ptr %88, ptr %20, align 8, !tbaa !83
  call void @llvm.lifetime.start.p0(i64 8, ptr %21) #10
  %89 = load ptr, ptr %10, align 8, !tbaa !78
  %90 = getelementptr inbounds nuw %struct.ThreadData, ptr %89, i32 0, i32 1
  %91 = load i32, ptr %12, align 4, !tbaa !34
  %92 = sext i32 %91 to i64
  %93 = getelementptr inbounds [4 x ptr], ptr %90, i64 0, i64 %92
  %94 = load ptr, ptr %93, align 8, !tbaa !83
  %95 = load i32, ptr %18, align 4, !tbaa !34
  %96 = load i32, ptr %16, align 4, !tbaa !34
  %97 = mul nsw i32 %95, %96
  %98 = sext i32 %97 to i64
  %99 = getelementptr inbounds i8, ptr %94, i64 %98
  store ptr %99, ptr %21, align 8, !tbaa !83
  call void @llvm.lifetime.start.p0(i64 8, ptr %22) #10
  store i64 0, ptr %22, align 8, !tbaa !84
  call void @llvm.lifetime.start.p0(i64 4, ptr %23) #10
  %100 = load i32, ptr %16, align 4, !tbaa !34
  store i32 %100, ptr %23, align 4, !tbaa !34
  br label %101

101:                                              ; preds = %125, %42
  %102 = load i32, ptr %23, align 4, !tbaa !34
  %103 = load i32, ptr %17, align 4, !tbaa !34
  %104 = icmp slt i32 %102, %103
  br i1 %104, label %106, label %105

105:                                              ; preds = %101
  store i32 5, ptr %13, align 4
  call void @llvm.lifetime.end.p0(i64 4, ptr %23) #10
  br label %128

106:                                              ; preds = %101
  %107 = load ptr, ptr %9, align 8, !tbaa !22
  %108 = getelementptr inbounds nuw %struct.IdentityContext, ptr %107, i32 0, i32 17
  %109 = load ptr, ptr %108, align 8, !tbaa !75
  %110 = load ptr, ptr %20, align 8, !tbaa !83
  %111 = load ptr, ptr %21, align 8, !tbaa !83
  %112 = load i32, ptr %14, align 4, !tbaa !34
  %113 = call i32 %109(ptr noundef %110, ptr noundef %111, i32 noundef %112)
  %114 = zext i32 %113 to i64
  %115 = load i64, ptr %22, align 8, !tbaa !84
  %116 = add i64 %115, %114
  store i64 %116, ptr %22, align 8, !tbaa !84
  %117 = load i32, ptr %18, align 4, !tbaa !34
  %118 = load ptr, ptr %21, align 8, !tbaa !83
  %119 = sext i32 %117 to i64
  %120 = getelementptr inbounds i8, ptr %118, i64 %119
  store ptr %120, ptr %21, align 8, !tbaa !83
  %121 = load i32, ptr %19, align 4, !tbaa !34
  %122 = load ptr, ptr %20, align 8, !tbaa !83
  %123 = sext i32 %121 to i64
  %124 = getelementptr inbounds i8, ptr %122, i64 %123
  store ptr %124, ptr %20, align 8, !tbaa !83
  br label %125

125:                                              ; preds = %106
  %126 = load i32, ptr %23, align 4, !tbaa !34
  %127 = add nsw i32 %126, 1
  store i32 %127, ptr %23, align 4, !tbaa !34
  br label %101, !llvm.loop !85

128:                                              ; preds = %105
  %129 = load i64, ptr %22, align 8, !tbaa !84
  %130 = load ptr, ptr %11, align 8, !tbaa !68
  %131 = load i32, ptr %12, align 4, !tbaa !34
  %132 = sext i32 %131 to i64
  %133 = getelementptr inbounds i64, ptr %130, i64 %132
  store i64 %129, ptr %133, align 8, !tbaa !84
  call void @llvm.lifetime.end.p0(i64 8, ptr %22) #10
  call void @llvm.lifetime.end.p0(i64 8, ptr %21) #10
  call void @llvm.lifetime.end.p0(i64 8, ptr %20) #10
  call void @llvm.lifetime.end.p0(i64 4, ptr %19) #10
  call void @llvm.lifetime.end.p0(i64 4, ptr %18) #10
  call void @llvm.lifetime.end.p0(i64 4, ptr %17) #10
  call void @llvm.lifetime.end.p0(i64 4, ptr %16) #10
  call void @llvm.lifetime.end.p0(i64 4, ptr %15) #10
  call void @llvm.lifetime.end.p0(i64 4, ptr %14) #10
  br label %134

134:                                              ; preds = %128
  %135 = load i32, ptr %12, align 4, !tbaa !34
  %136 = add nsw i32 %135, 1
  store i32 %136, ptr %12, align 4, !tbaa !34
  br label %35, !llvm.loop !86

137:                                              ; preds = %41
  store i32 1, ptr %13, align 4
  call void @llvm.lifetime.end.p0(i64 8, ptr %11) #10
  call void @llvm.lifetime.end.p0(i64 8, ptr %10) #10
  call void @llvm.lifetime.end.p0(i64 8, ptr %9) #10
  ret i32 0
}