; Function Attrs: nounwind uwtable
define internal noundef i32 @compute_images_identity(ptr noundef readonly captures(none) %0, ptr noundef readonly captures(none) %1, i32 noundef %2, i32 noundef %3) #0 {
  %5 = getelementptr inbounds nuw i8, ptr %1, i64 128
  %6 = load ptr, ptr %5, align 8, !tbaa !72
  %7 = sext i32 %2 to i64
  %8 = getelementptr inbounds ptr, ptr %6, i64 %7
  %9 = load ptr, ptr %8, align 8, !tbaa !64
  %10 = getelementptr inbounds nuw i8, ptr %1, i64 136
  %11 = load i32, ptr %10, align 8, !tbaa !74
  %12 = icmp sgt i32 %11, 0
  br i1 %12, label %.lr.ph54, label %._crit_edge55

.lr.ph54:                                         ; preds = %4
  %13 = getelementptr inbounds nuw i8, ptr %0, i64 72
  %14 = load ptr, ptr %13, align 8, !tbaa !4
  %15 = getelementptr inbounds nuw i8, ptr %1, i64 96
  %16 = getelementptr inbounds nuw i8, ptr %1, i64 112
  %17 = add nsw i32 %2, 1
  %18 = getelementptr inbounds nuw i8, ptr %1, i64 80
  %19 = getelementptr inbounds nuw i8, ptr %1, i64 64
  %20 = getelementptr inbounds nuw i8, ptr %1, i64 32
  %21 = getelementptr inbounds nuw i8, ptr %14, i64 248
  br label %22

._crit_edge55:                                    ; preds = %._crit_edge, %4
  ret i32 0

22:                                               ; preds = %.lr.ph54, %._crit_edge
  %23 = phi i32 [ %11, %.lr.ph54 ], [ %49, %._crit_edge ]
  %indvars.iv = phi i64 [ 0, %.lr.ph54 ], [ %indvars.iv.next, %._crit_edge ]
  %24 = getelementptr inbounds nuw [4 x i32], ptr %15, i64 0, i64 %indvars.iv
  %25 = load i32, ptr %24, align 4, !tbaa !61
  %26 = getelementptr inbounds nuw [4 x i32], ptr %16, i64 0, i64 %indvars.iv
  %27 = load i32, ptr %26, align 4, !tbaa !61
  %28 = mul nsw i32 %27, %2
  %29 = sdiv i32 %28, %3
  %30 = mul nsw i32 %27, %17
  %31 = sdiv i32 %30, %3
  %32 = icmp slt i32 %29, %31
  br i1 %32, label %.lr.ph, label %._crit_edge

.lr.ph:                                           ; preds = %22
  %33 = getelementptr inbounds nuw [4 x ptr], ptr %20, i64 0, i64 %indvars.iv
  %34 = load ptr, ptr %33, align 8, !tbaa !75
  %35 = getelementptr inbounds nuw [4 x i32], ptr %18, i64 0, i64 %indvars.iv
  %36 = load i32, ptr %35, align 4, !tbaa !61
  %37 = mul nsw i32 %36, %29
  %38 = sext i32 %37 to i64
  %39 = getelementptr inbounds i8, ptr %34, i64 %38
  %40 = getelementptr inbounds nuw [4 x ptr], ptr %1, i64 0, i64 %indvars.iv
  %41 = load ptr, ptr %40, align 8, !tbaa !75
  %42 = getelementptr inbounds nuw [4 x i32], ptr %19, i64 0, i64 %indvars.iv
  %43 = load i32, ptr %42, align 4, !tbaa !61
  %44 = mul nsw i32 %43, %29
  %45 = sext i32 %44 to i64
  %46 = getelementptr inbounds i8, ptr %41, i64 %45
  %47 = sext i32 %36 to i64
  %48 = sext i32 %43 to i64
  br label %53

._crit_edge.loopexit:                             ; preds = %53
  %.pre = load i32, ptr %10, align 8, !tbaa !74
  br label %._crit_edge

._crit_edge:                                      ; preds = %._crit_edge.loopexit, %22
  %49 = phi i32 [ %23, %22 ], [ %.pre, %._crit_edge.loopexit ]
  %.044.lcssa = phi i64 [ 0, %22 ], [ %57, %._crit_edge.loopexit ]
  %50 = getelementptr inbounds nuw i64, ptr %9, i64 %indvars.iv
  store i64 %.044.lcssa, ptr %50, align 8, !tbaa !76
  %indvars.iv.next = add nuw nsw i64 %indvars.iv, 1
  %51 = sext i32 %49 to i64
  %52 = icmp slt i64 %indvars.iv.next, %51
  br i1 %52, label %22, label %._crit_edge55, !llvm.loop !77

53:                                               ; preds = %.lr.ph, %53
  %.051 = phi i32 [ %29, %.lr.ph ], [ %60, %53 ]
  %.04450 = phi i64 [ 0, %.lr.ph ], [ %57, %53 ]
  %.04549 = phi ptr [ %39, %.lr.ph ], [ %58, %53 ]
  %.04648 = phi ptr [ %46, %.lr.ph ], [ %59, %53 ]
  %54 = load ptr, ptr %21, align 8, !tbaa !70
  %55 = tail call i32 %54(ptr noundef %.04648, ptr noundef %.04549, i32 noundef %25) #12
  %56 = zext i32 %55 to i64
  %57 = add i64 %.04450, %56
  %58 = getelementptr inbounds i8, ptr %.04549, i64 %47
  %59 = getelementptr inbounds i8, ptr %.04648, i64 %48
  %60 = add i32 %.051, 1
  %exitcond.not = icmp eq i32 %60, %31
  br i1 %exitcond.not, label %._crit_edge.loopexit, label %53, !llvm.loop !78
}